(lp0
S'poi'
p1
aS'shared_receipt_with_poi'
p2
aS'from_poi_to_this_person'
p3
aS'loan_advances'
p4
aS'from_this_person_to_poi'
p5
aS'to_messages'
p6
aS'director_fees'
p7
aS'total_payments'
p8
aS'exercised_stock_options'
p9
aS'deferred_income'
p10
aS'total_stock_value'
p11
aS'bonus'
p12
aS'other'
p13
aS'restricted_stock'
p14
aS'long_term_incentive'
p15
aS'expenses'
p16
aS'restricted_stock_deferred'
p17
aS'salary'
p18
aS'poi_mail_ratio'
p19
a.