(lp0
S'poi'
p1
aS'shared_receipt_with_poi'
p2
aS'from_poi_to_this_person'
p3
aS'loan_advances'
p4
aS'from_this_person_to_poi'
p5
aS'to_messages'
p6
aS'director_fees'
p7
aS'total_payments'
p8
aS'deferral_payments'
p9
aS'exercised_stock_options'
p10
aS'deferred_income'
p11
aS'total_stock_value'
p12
aS'from_messages'
p13
aS'bonus'
p14
aS'other'
p15
aS'restricted_stock'
p16
aS'long_term_incentive'
p17
aS'expenses'
p18
aS'restricted_stock_deferred'
p19
aS'salary'
p20
a.